; Function Attrs: nounwind uwtable
define i32 @Dau_DsdToGia2(ptr noundef %0, ptr noundef %1, ptr noundef %2, ptr noundef %3) local_unnamed_addr #0 {
  %5 = alloca ptr, align 8
  store ptr %1, ptr %5, align 8, !tbaa !30
  %6 = load i8, ptr %1, align 1, !tbaa !31
  switch i8 %6, label %.thread [
    i8 48, label %7
    i8 49, label %11
  ]

7:                                                ; preds = %4
  %8 = getelementptr inbounds nuw i8, ptr %1, i64 1
  %9 = load i8, ptr %8, align 1, !tbaa !31
  %10 = icmp eq i8 %9, 0
  br i1 %10, label %17, label %.thread

11:                                               ; preds = %4
  %12 = getelementptr inbounds nuw i8, ptr %1, i64 1
  %13 = load i8, ptr %12, align 1, !tbaa !31
  %14 = icmp eq i8 %13, 0
  br i1 %14, label %17, label %.thread

.thread:                                          ; preds = %4, %7, %11
  %15 = tail call ptr @Dau_DsdComputeMatches(ptr noundef nonnull %1) #19
  %16 = call i32 @Dau_DsdToGia2_rec(ptr noundef %0, ptr noundef nonnull %1, ptr noundef nonnull %5, ptr noundef %15, ptr noundef %2, ptr noundef %3)
  br label %17

17:                                               ; preds = %11, %7, %.thread
  %.0 = phi i32 [ %16, %.thread ], [ 0, %7 ], [ 1, %11 ]
  ret i32 %.0
}